; Function Attrs: mustprogress nofree nosync nounwind memory(readwrite, inaccessiblemem: none) uwtable
define void @_ZNK6Assimp20PretransformVertices21MakeIdentityTransformEP6aiNode(ptr nocapture noundef nonnull readnone align 8 dereferenceable(93) %this, ptr nocapture noundef %nd) local_unnamed_addr #9 align 2 {
entry:
  %mTransformation = getelementptr inbounds i8, ptr %nd, i64 1028
  store float 1.000000e+00, ptr %mTransformation, align 4
  %ref.tmp.sroa.2.0.mTransformation.sroa_idx = getelementptr inbounds i8, ptr %nd, i64 1032
  tail call void @llvm.memset.p0.i64(ptr noundef nonnull align 4 dereferenceable(16) %ref.tmp.sroa.2.0.mTransformation.sroa_idx, i8 0, i64 16, i1 false)
  %ref.tmp.sroa.3.0.mTransformation.sroa_idx = getelementptr inbounds i8, ptr %nd, i64 1048
  store float 1.000000e+00, ptr %ref.tmp.sroa.3.0.mTransformation.sroa_idx, align 4
  %ref.tmp.sroa.4.0.mTransformation.sroa_idx = getelementptr inbounds i8, ptr %nd, i64 1052
  tail call void @llvm.memset.p0.i64(ptr noundef nonnull align 4 dereferenceable(16) %ref.tmp.sroa.4.0.mTransformation.sroa_idx, i8 0, i64 16, i1 false)
  %ref.tmp.sroa.5.0.mTransformation.sroa_idx = getelementptr inbounds i8, ptr %nd, i64 1068
  store float 1.000000e+00, ptr %ref.tmp.sroa.5.0.mTransformation.sroa_idx, align 4
  %ref.tmp.sroa.6.0.mTransformation.sroa_idx = getelementptr inbounds i8, ptr %nd, i64 1072
  tail call void @llvm.memset.p0.i64(ptr noundef nonnull align 4 dereferenceable(16) %ref.tmp.sroa.6.0.mTransformation.sroa_idx, i8 0, i64 16, i1 false)
  %ref.tmp.sroa.7.0.mTransformation.sroa_idx = getelementptr inbounds i8, ptr %nd, i64 1088
  store float 1.000000e+00, ptr %ref.tmp.sroa.7.0.mTransformation.sroa_idx, align 4
  %mNumChildren = getelementptr inbounds i8, ptr %nd, i64 1104
  %0 = load i32, ptr %mNumChildren, align 8
  %cmp5.not = icmp eq i32 %0, 0
  br i1 %cmp5.not, label %for.end, label %for.body.lr.ph

for.body.lr.ph:                                   ; preds = %entry
  %mChildren = getelementptr inbounds i8, ptr %nd, i64 1112
  br label %for.body

for.body:                                         ; preds = %for.body.lr.ph, %for.body
  %indvars.iv = phi i64 [ 0, %for.body.lr.ph ], [ %indvars.iv.next, %for.body ]
  %1 = load ptr, ptr %mChildren, align 8
  %arrayidx = getelementptr inbounds ptr, ptr %1, i64 %indvars.iv
  %2 = load ptr, ptr %arrayidx, align 8
  tail call void @_ZNK6Assimp20PretransformVertices21MakeIdentityTransformEP6aiNode(ptr noundef nonnull align 8 dereferenceable(93) %this, ptr noundef %2)
  %indvars.iv.next = add nuw nsw i64 %indvars.iv, 1
  %3 = load i32, ptr %mNumChildren, align 8
  %4 = zext i32 %3 to i64
  %cmp = icmp ult i64 %indvars.iv.next, %4
  br i1 %cmp, label %for.body, label %for.end, !llvm.loop !25

for.end:                                          ; preds = %for.body, %entry
  ret void
}